; Function Attrs: null_pointer_is_valid sspstrong uwtable
define internal fastcc noundef i32 @dissect_rate_class(ptr noundef %0, i32 noundef %1, ptr noundef %2) unnamed_addr #0 {
  %4 = load i32, ptr @hf_generic_rateinfo_classid, align 4
  %5 = tail call ptr @proto_tree_add_item(ptr noundef %2, i32 noundef %4, ptr noundef %0, i32 noundef %1, i32 noundef 2, i32 noundef 0)
  %6 = add i32 %1, 2
  %7 = load i32, ptr @hf_generic_rateinfo_windowsize, align 4
  %8 = tail call ptr @proto_tree_add_item(ptr noundef %2, i32 noundef %7, ptr noundef %0, i32 noundef %6, i32 noundef 4, i32 noundef 0)
  %9 = add i32 %1, 6
  %10 = load i32, ptr @hf_generic_rateinfo_clearlevel, align 4
  %11 = tail call ptr @proto_tree_add_item(ptr noundef %2, i32 noundef %10, ptr noundef %0, i32 noundef %9, i32 noundef 4, i32 noundef 0)
  %12 = add i32 %1, 10
  %13 = load i32, ptr @hf_generic_rateinfo_alertlevel, align 4
  %14 = tail call ptr @proto_tree_add_item(ptr noundef %2, i32 noundef %13, ptr noundef %0, i32 noundef %12, i32 noundef 4, i32 noundef 0)
  %15 = add i32 %1, 14
  %16 = load i32, ptr @hf_generic_rateinfo_limitlevel, align 4
  %17 = tail call ptr @proto_tree_add_item(ptr noundef %2, i32 noundef %16, ptr noundef %0, i32 noundef %15, i32 noundef 4, i32 noundef 0)
  %18 = add i32 %1, 18
  %19 = load i32, ptr @hf_generic_rateinfo_disconnectlevel, align 4
  %20 = tail call ptr @proto_tree_add_item(ptr noundef %2, i32 noundef %19, ptr noundef %0, i32 noundef %18, i32 noundef 4, i32 noundef 0)
  %21 = add i32 %1, 22
  %22 = load i32, ptr @hf_generic_rateinfo_currentlevel, align 4
  %23 = tail call ptr @proto_tree_add_item(ptr noundef %2, i32 noundef %22, ptr noundef %0, i32 noundef %21, i32 noundef 4, i32 noundef 0)
  %24 = add i32 %1, 26
  %25 = load i32, ptr @hf_generic_rateinfo_maxlevel, align 4
  %26 = tail call ptr @proto_tree_add_item(ptr noundef %2, i32 noundef %25, ptr noundef %0, i32 noundef %24, i32 noundef 4, i32 noundef 0)
  %27 = add i32 %1, 30
  %28 = load i32, ptr @hf_generic_rateinfo_lasttime, align 4
  %29 = tail call ptr @proto_tree_add_item(ptr noundef %2, i32 noundef %28, ptr noundef %0, i32 noundef %27, i32 noundef 4, i32 noundef 0)
  %30 = add i32 %1, 34
  %31 = load i32, ptr @hf_generic_rateinfo_curstate, align 4
  %32 = tail call ptr @proto_tree_add_item(ptr noundef %2, i32 noundef %31, ptr noundef %0, i32 noundef %30, i32 noundef 1, i32 noundef 0)
  %33 = add i32 %1, 35
  ret i32 %33
}